ccopy_reg
_reconstructor
p0
(csklearn.preprocessing.data
StandardScaler
p1
c__builtin__
object
p2
Ntp3
Rp4
(dp5
S'mean_'
p6
cnumpy.core.multiarray
_reconstruct
p7
(cnumpy
ndarray
p8
(I0
tp9
S'b'
p10
tp11
Rp12
(I1
(L3L
tp13
cnumpy
dtype
p14
(S'f8'
p15
I0
I1
tp16
Rp17
(I3
S'<'
p18
NNNI-1
I-1
I0
tp19
bI00
S'\x1eqG\xdc\xe1\xcf\xdd@\x06}A_\xd0\x17%@\x955eMYS\x12@'
p20
tp21
bsS'with_mean'
p22
I01
sS'var_'
p23
g7
(g8
(I0
tp24
g10
tp25
Rp26
(I1
(L3L
tp27
g17
I00
S'y\xcc\xab\xf4\xa58\xc8A\xae\x1c\xb9\xff\x11\x06g@\x90R\x0c\xdf]\x8aR@'
p28
tp29
bsS'scale_'
p30
g7
(g8
(I0
tp31
g10
tp32
Rp33
(I1
(L3L
tp34
g17
I00
S'\xc9^\xa2g\x1c\xd7\xdb@\xc1\xab\xa1_\xaf$+@\t\x08\xf3S59!@'
p35
tp36
bsS'with_std'
p37
I01
sS'n_samples_seen_'
p38
cnumpy.core.multiarray
scalar
p39
(g14
(S'i8'
p40
I0
I1
tp41
Rp42
(I3
S'<'
p43
NNNI-1
I-1
I0
tp44
bS'\xac\x00\x00\x00\x00\x00\x00\x00'
p45
tp46
Rp47
sS'_sklearn_version'
p48
S'0.20.3'
p49
sS'copy'
p50
I01
sb.