ccopy_reg
_reconstructor
p0
(csklearn.preprocessing.data
StandardScaler
p1
c__builtin__
object
p2
Ntp3
Rp4
(dp5
S'mean_'
p6
cnumpy.core.multiarray
_reconstruct
p7
(cnumpy
ndarray
p8
(I0
tp9
S'b'
p10
tp11
Rp12
(I1
(L4L
tp13
cnumpy
dtype
p14
(S'f8'
p15
I0
I1
tp16
Rp17
(I3
S'<'
p18
NNNI-1
I-1
I0
tp19
bI00
S'=\xcf\xf3<w\xe1\xde@,`\xf6z\xc0a&@\xf4<\xcf\xf3<\xcf.@b\x18\x86a\x18F!@'
p20
tp21
bsS'with_mean'
p22
I01
sS'var_'
p23
g7
(g8
(I0
tp24
g10
tp25
Rp26
(I1
(L4L
tp27
g17
I00
S':\xb2\x93\xb4\xd3\xa6\xc8A\xe2)V\xdb\xee/p@\x1d\xaa3_<t~@\xea\x9dp.\xf0\xf6s@'
p28
tp29
bsS'scale_'
p30
g7
(g8
(I0
tp31
g10
tp32
Rp33
(I1
(L4L
tp34
g17
I00
S"\xa4\xcc\x86\x11'\x16\xdc@\xd3u5\x95\xe5\x170@\xa5\xc2\x14\x82\xf6\x126@K\xfa\xa4\xb1i\xdf1@"
p35
tp36
bsS'with_std'
p37
I01
sS'n_samples_seen_'
p38
cnumpy.core.multiarray
scalar
p39
(g14
(S'i8'
p40
I0
I1
tp41
Rp42
(I3
S'<'
p43
NNNI-1
I-1
I0
tp44
bS'\xa8\x00\x00\x00\x00\x00\x00\x00'
p45
tp46
Rp47
sS'_sklearn_version'
p48
S'0.20.3'
p49
sS'copy'
p50
I01
sb.