ccopy_reg
_reconstructor
p0
(csklearn.preprocessing.data
StandardScaler
p1
c__builtin__
object
p2
Ntp3
Rp4
(dp5
S'mean_'
p6
cnumpy.core.multiarray
_reconstruct
p7
(cnumpy
ndarray
p8
(I0
tp9
S'b'
p10
tp11
Rp12
(I1
(L4L
tp13
cnumpy
dtype
p14
(S'f8'
p15
I0
I1
tp16
Rp17
(I3
S'<'
p18
NNNI-1
I-1
I0
tp19
bI00
S'\xdf\xf4\xa67\xb5\xa9\xdd@\x91\x85,d!\xf7e@\xcd\xd3L\xce\x8f`\xe1?z\xd3\x9b\xde\xf4\xa6\x00@'
p20
tp21
bsS'with_mean'
p22
I01
sS'var_'
p23
g7
(g8
(I0
tp24
g10
tp25
Rp26
(I1
(L4L
tp27
g17
I00
S"\xd2\x04dD^\xe8\xc8A\xea>\x9e\t\xc21\x08A\xf34'\xfeJ{\xb3?5\x90v[\x13\x10,@"
p28
tp29
bsS'scale_'
p30
g7
(g8
(I0
tp31
g10
tp32
Rp33
(I1
(L4L
tp34
g17
I00
S'\xe1+\xfd\x96d;\xdc@Z7\x16c&\xd3{@\xb2\xf5\xb6\xab\xba\xa7\xd1?\x8c\xacG\x96\x80\xf7\r@'
p35
tp36
bsS'with_std'
p37
I01
sS'n_samples_seen_'
p38
cnumpy.core.multiarray
scalar
p39
(g14
(S'i8'
p40
I0
I1
tp41
Rp42
(I3
S'<'
p43
NNNI-1
I-1
I0
tp44
bS'\xb8\x00\x00\x00\x00\x00\x00\x00'
p45
tp46
Rp47
sS'_sklearn_version'
p48
S'0.20.3'
p49
sS'copy'
p50
I01
sb.