ccopy_reg
_reconstructor
p0
(csklearn.preprocessing._encoders
OneHotEncoder
p1
c__builtin__
object
p2
Ntp3
Rp4
(dp5
S'_categorical_features'
p6
S'all'
p7
sS'categories_'
p8
(lp9
cnumpy.core.multiarray
_reconstruct
p10
(cnumpy
ndarray
p11
(I0
tp12
S'b'
p13
tp14
Rp15
(I1
(L4L
tp16
cnumpy
dtype
p17
(S'O8'
p18
I0
I1
tp19
Rp20
(I3
S'|'
p21
NNNI-1
I-1
I63
tp22
bI00
(lp23
S'mds:1496'
p24
aS'prl:12'
p25
aS'prl:15'
p26
aS'vci:soc'
p27
atp28
basS'dtype'
p29
cnumpy
float64
p30
sS'_categories'
p31
S'auto'
p32
sS'categorical_features'
p33
NsS'n_values'
p34
NsS'_legacy_mode'
p35
I00
sS'_n_values'
p36
g32
sS'_sklearn_version'
p37
S'0.20.3'
p38
sS'sparse'
p39
I01
sS'handle_unknown'
p40
S'ignore'
p41
sS'categories'
p42
Nsb.