ccopy_reg
_reconstructor
p0
(csklearn.preprocessing.data
StandardScaler
p1
c__builtin__
object
p2
Ntp3
Rp4
(dp5
S'mean_'
p6
cnumpy.core.multiarray
_reconstruct
p7
(cnumpy
ndarray
p8
(I0
tp9
S'b'
p10
tp11
Rp12
(I1
(L4L
tp13
cnumpy
dtype
p14
(S'f8'
p15
I0
I1
tp16
Rp17
(I3
S'<'
p18
NNNI-1
I-1
I0
tp19
bI00
S'\xd3\xd2\xd2\xd2\xc2W\xd5@n\xdb\xb6m\xdb\xb6q@|\x82%\xe1fn\xe1?P\xbd\x98O\xbd\x98\xfb?'
p20
tp21
bsS'with_mean'
p22
I01
sS'var_'
p23
g7
(g8
(I0
tp24
g10
tp25
Rp26
(I1
(L4L
tp27
g17
I00
S'u\xe0\xb6\xb7=\x13\xc2A\xd4\xedzp\x84^%AW\x1e\xb4z\xc1\xbf\xb7?m\xd8\xb8_\x01\xa46@'
p28
tp29
bsS'scale_'
p30
g7
(g8
(I0
tp31
g10
tp32
Rp33
(I1
(L4L
tp34
g17
I00
S'\x8e|\x14d\xd0\x0c\xd8@\xd9r\xdf\x95\\&\x8a@\x03S\x8f+B~\xd3?\x00\xf2\x07\x81j\x08\x13@'
p35
tp36
bsS'with_std'
p37
I01
sS'n_samples_seen_'
p38
cnumpy.core.multiarray
scalar
p39
(g14
(S'i8'
p40
I0
I1
tp41
Rp42
(I3
S'<'
p43
NNNI-1
I-1
I0
tp44
bS'\xdc\x01\x00\x00\x00\x00\x00\x00'
p45
tp46
Rp47
sS'_sklearn_version'
p48
S'0.20.3'
p49
sS'copy'
p50
I01
sb.