ccopy_reg
_reconstructor
p0
(csklearn.preprocessing._encoders
OneHotEncoder
p1
c__builtin__
object
p2
Ntp3
Rp4
(dp5
S'_categorical_features'
p6
S'all'
p7
sS'categories_'
p8
(lp9
cnumpy.core.multiarray
_reconstruct
p10
(cnumpy
ndarray
p11
(I0
tp12
S'b'
p13
tp14
Rp15
(I1
(L257L
tp16
cnumpy
dtype
p17
(S'O8'
p18
I0
I1
tp19
Rp20
(I3
S'|'
p21
NNNI-1
I-1
I63
tp22
bI00
(lp23
S'hostname:'
p24
aS'hostname: '
p25
aS'hostname: 1jfiegbqo4seq_eth0'
p26
aS'hostname: 9884e3e435bd'
p27
aS'hostname: camerahd'
p28
aS'hostname: gemoduleb560'
p29
aS'hostname: google'
p30
aS'hostname: hap'
p31
aS'hostname: lb130'
p32
aS'hostname: lightify'
p33
aS'hostname: lumi'
p34
aS'hostname: none'
p35
aS'hostname: roomba'
p36
aS'hostname: st'
p37
aS'hostname: yeelink'
p38
aS'hostname:027128f7'
p39
aS'hostname:03e4'
p40
aS'hostname:07aa01ad501706sq'
p41
aS'hostname:09aa01ac2418058x'
p42
aS'hostname:09aa01ac27170grk'
p43
aS'hostname:0ca8ef20f'
p44
aS'hostname:0cbaef3b7'
p45
aS'hostname:16cb7d9344894616'
p46
aS'hostname:18a8'
p47
aS'hostname:1jfiegbqi1pta_eth0'
p48
aS'hostname:1jfiegbqo4seq_eth0'
p49
aS'hostname:1jfiegbqo4seq_ra0'
p50
aS'hostname:21fd89334'
p51
aS'hostname:24fd5b000001dca3'
p52
aS'hostname:26fbc3d28e0130e6'
p53
aS'hostname:283e6b'
p54
aS'hostname:28c6'
p55
aS'hostname:29d71d'
p56
aS'hostname:3147c60410440780'
p57
aS'hostname:5009l'
p58
aS'hostname:537f89cca4c2aac1'
p59
aS'hostname:77354d'
p60
aS'hostname:7b5ad4670'
p61
aS'hostname:7c1a56'
p62
aS'hostname:7dcfa2'
p63
aS'hostname:93e7fe558cea7ef5'
p64
aS'hostname:9884e3e435bd'
p65
aS'hostname:a534'
p66
aS'hostname:a7'
p67
aS'hostname:afek'
p68
aS'hostname:amazon'
p69
aS'hostname:amc020sc43pj749d66'
p70
aS'hostname:anat'
p71
aS'hostname:android'
p72
aS'hostname:arunans'
p73
aS'hostname:asis'
p74
aS'hostname:assafs'
p75
aS'hostname:august'
p76
aS'hostname:bdc3613cb244e6d9'
p77
aS'hostname:bffafc72b'
p78
aS'hostname:bobbys'
p79
aS'hostname:bulb_miio60559272'
p80
aS'hostname:c100f1601154'
p81
aS'hostname:c6509828330578bc'
p82
aS'hostname:cam'
p83
aS'hostname:camerahd'
p84
aS'hostname:chromecast'
p85
aS'hostname:d052a8634a920001'
p86
aS'hostname:d2gth00390'
p87
aS'hostname:dan'
p88
aS'hostname:davids'
p89
aS'hostname:dcs'
p90
aS'hostname:desktop'
p91
aS'hostname:dlink'
p92
aS'hostname:doorbell'
p93
aS'hostname:e9913c528cde7ce1'
p94
aS'hostname:esp_0ff1b3'
p95
aS'hostname:esp_28b65b'
p96
aS'hostname:esp_357a49'
p97
aS'hostname:esp_8220bb'
p98
aS'hostname:esp_89fce7'
p99
aS'hostname:esp_bac26b'
p100
aS'hostname:esp_c15805'
p101
aS'hostname:f01fcb556'
p102
aS'hostname:f4b85e3173db'
p103
aS'hostname:fe3590fa2'
p104
aS'hostname:galaxy'
p105
aS'hostname:gateway'
p106
aS'hostname:gemoduleb560'
p107
aS'hostname:google'
p108
aS'hostname:gs_cc181f'
p109
aS'hostname:guam'
p110
aS'hostname:h'
p111
aS'hostname:hap'
p112
aS'hostname:harmonyhub'
p113
aS'hostname:hassans'
p114
aS'hostname:hk invoke_c229be'
p115
aS'hostname:hk invoke_c334e4'
p116
aS'hostname:hk_allure_26ae'
p117
aS'hostname:home'
p118
aS'hostname:hpe49bc0'
p119
aS'hostname:hs105'
p120
aS'hostname:hs110'
p121
aS'hostname:hubpro'
p122
aS'hostname:hue'
p123
aS'hostname:ipad'
p124
aS'hostname:ipc'
p125
aS'hostname:ipcam'
p126
aS'hostname:iphone'
p127
aS'hostname:koogeek'
p128
aS'hostname:laptop'
p129
aS'hostname:lb1'
p130
aS'hostname:lb120'
p131
aS'hostname:lb130'
p132
aS'hostname:le_computer'
p133
aS'hostname:lifx 2365c0'
p134
aS'hostname:lifx bulb'
p135
aS'hostname:lifx color 1000'
p136
aS'hostname:light'
p137
aS'hostname:lightify'
p138
aS'hostname:little cam'
p139
aS'hostname:living'
p140
aS'hostname:localhost'
p141
aS'hostname:logicircle'
p142
aS'hostname:lumi'
p143
aS'hostname:lutron'
p144
aS'hostname:macbook'
p145
aS'hostname:mbp'
p146
aS'hostname:mi5'
p147
aS'hostname:mini'
p148
aS'hostname:miphone'
p149
aS'hostname:mov'
p150
aS'hostname:myq'
p151
aS'hostname:mysimplelink'
p152
aS'hostname:nest'
p153
aS'hostname:netatmo'
p154
aS'hostname:netcamhd'
p155
aS'hostname:none'
p156
aS'hostname:nza6mmm6mwy6m2i6mzy6ntmk'
p157
aS'hostname:nzahavi'
p158
aS'hostname:omri'
p159
aS'hostname:pc'
p160
aS'hostname:philips'
p161
aS'hostname:phone'
p162
aS'hostname:piper'
p163
aS'hostname:pro'
p164
aS'hostname:pz'
p165
aS'hostname:redmi'
p166
aS'hostname:redminote5'
p167
aS'hostname:ring'
p168
aS'hostname:rockrobo'
p169
aS'hostname:roku 4 '
p170
aS'hostname:room'
p171
aS'hostname:roomba'
p172
aS'hostname:s3'
p173
aS'hostname:s7'
p174
aS'hostname:samsung'
p175
aS'hostname:sl'
p176
aS'hostname:smartthings'
p177
aS'hostname:sonoszp'
p178
aS'hostname:st'
p179
aS'hostname:stevens'
p180
aS'hostname:strip1_miio57480743'
p181
aS'hostname:t470s'
p182
aS'hostname:tab'
p183
aS'hostname:testbed09'
p184
aS'hostname:testbed13'
p185
aS'hostname:thinkpad'
p186
aS'hostname:tizen'
p187
aS'hostname:tstat'
p188
aS'hostname:ttr4pa8'
p189
aS'hostname:us'
p190
aS'hostname:user'
p191
aS'hostname:v3_miio56456852'
p192
aS'hostname:v3_miio94266543'
p193
aS'hostname:vijays'
p194
aS'hostname:vmb3010'
p195
aS'hostname:wbp'
p196
aS'hostname:wbp02'
p197
aS'hostname:welcome'
p198
aS'hostname:wemo'
p199
aS'hostname:wsd'
p200
aS'hostname:x01'
p201
aS'hostname:x02'
p202
aS'hostname:x04 '
p203
aS'hostname:x11'
p204
aS'hostname:x95'
p205
aS'hostname:xe8i'
p206
aS'hostname:xfb'
p207
aS'hostname:yeelink'
p208
aS'mds: 576'
p209
aS'mds: none'
p210
aS'mds:1472'
p211
aS'mds:1496'
p212
aS'mds:1500'
p213
aS'mds:1520'
p214
aS'mds:576'
p215
aS'mds:none'
p216
aS'msg_t: 3'
p217
aS'msg_t: 7'
p218
aS'msg_t: 8'
p219
aS'msg_t:1'
p220
aS'msg_t:3'
p221
aS'msg_t:7'
p222
aS'msg_t:8'
p223
aS'prl: 119'
p224
aS'prl: 12'
p225
aS'prl: 121'
p226
aS'prl: 13'
p227
aS'prl: 15'
p228
aS'prl: 17'
p229
aS'prl: 2'
p230
aS'prl: 249'
p231
aS'prl: 252'
p232
aS'prl: 26'
p233
aS'prl: 28'
p234
aS'prl: 3'
p235
aS'prl: 31'
p236
aS'prl: 33'
p237
aS'prl: 4'
p238
aS'prl: 40'
p239
aS'prl: 41'
p240
aS'prl: 42'
p241
aS'prl: 43'
p242
aS'prl: 44'
p243
aS'prl: 46'
p244
aS'prl: 47'
p245
aS'prl: 5'
p246
aS'prl: 51'
p247
aS'prl: 54'
p248
aS'prl: 58'
p249
aS'prl: 59'
p250
aS'prl: 6'
p251
aS'prl: 66'
p252
aS'prl: 67'
p253
aS'prl: 69'
p254
aS'prl: 81'
p255
aS'prl: 95'
p256
aS'prl: none'
p257
aS'prl:1'
p258
aS'prl:none'
p259
aS'vci:'
p260
aS'vci: udhcp '
p261
aS'vci:android-dhcp-'
p262
aS'vci:armvl'
p263
aS'vci:dhcpcd-'
p264
aS'vci:emlab'
p265
aS'vci:flattened device tree'
p266
aS'vci:generic'
p267
aS'vci:googlewifi'
p268
aS'vci:honeywell'
p269
aS'vci:invoxia'
p270
aS'vci:linux-'
p271
aS'vci:linux---ts-armvl'
p272
aS'vci:marvell berlin soc '
p273
aS'vci:msft '
p274
aS'vci:none'
p275
aS'vci:triby'
p276
aS'vci:udhcp '
p277
aS'vci:udhcp --lsdk-'
p278
aS'vci:udhcp -pre'
p279
aS'vci:withings'
p280
atp281
basS'dtype'
p282
cnumpy
float64
p283
sS'_categories'
p284
S'auto'
p285
sS'categorical_features'
p286
NsS'n_values'
p287
NsS'_legacy_mode'
p288
I00
sS'_n_values'
p289
g285
sS'_sklearn_version'
p290
S'0.20.3'
p291
sS'sparse'
p292
I01
sS'handle_unknown'
p293
S'ignore'
p294
sS'categories'
p295
Nsb.